target datalayout = "e-m:e-p270:32:32-p271:32:32-p272:64:64-i64:64-i128:128-f80:128-n8:16:32:64-S128"
target triple = "x86_64-pc-linux-gnu"

%class.LibRaw = type { ptr, %struct.libraw_data_t, ptr, %struct.libraw_internal_data_t, [2048 x %struct.decode], ptr, ptr, [10 x %struct.tiff_ifd_t], %class.libraw_memmgr, %struct.libraw_callbacks_t, { i64, i64 }, { i64, i64 }, { i64, i64 }, ptr, ptr, ptr, i64, ptr, ptr, ptr, ptr }
%struct.libraw_data_t = type { ptr, %struct.libraw_image_sizes_t, %struct.libraw_iparams_t, %struct.libraw_lensinfo_t, %struct.libraw_makernotes_t, %struct.libraw_shootinginfo_t, %struct.libraw_output_params_t, %struct.libraw_raw_unpack_params_t, i32, i32, %struct.libraw_colordata_t, %struct.libraw_imgother_t, %struct.libraw_thumbnail_t, %struct.libraw_thumbnail_list_t, %struct.libraw_rawdata_t, ptr }
%struct.libraw_image_sizes_t = type { i16, i16, i16, i16, i16, i16, i16, i16, i32, double, i32, [8 x [4 x i32]], i16, [2 x %struct.libraw_raw_inset_crop_t] }
%struct.libraw_raw_inset_crop_t = type { i16, i16, i16, i16 }
%struct.libraw_iparams_t = type { [4 x i8], [64 x i8], [64 x i8], [64 x i8], [64 x i8], [64 x i8], i32, i32, i32, i32, i32, i32, [6 x [6 x i8]], [6 x [6 x i8]], [5 x i8], i32, ptr }
%struct.libraw_lensinfo_t = type { float, float, float, float, float, [128 x i8], [128 x i8], [128 x i8], [128 x i8], i16, %struct.libraw_nikonlens_t, %struct.libraw_dnglens_t, %struct.libraw_makernotes_lens_t }
%struct.libraw_nikonlens_t = type { float, i8, i8, i8, i8 }
%struct.libraw_dnglens_t = type { float, float, float, float }
%struct.libraw_makernotes_lens_t = type { i64, [128 x i8], i16, i16, i64, i16, i16, [64 x i8], i16, [16 x i8], [16 x i8], float, float, float, float, float, float, float, float, float, float, float, float, float, float, float, i64, [128 x i8], i64, [128 x i8], i64, [128 x i8], i16, float }
%struct.libraw_makernotes_t = type { %struct.libraw_canon_makernotes_t, %struct.libraw_nikon_makernotes_t, %struct.libraw_hasselblad_makernotes_t, %struct.libraw_fuji_info_t, %struct.libraw_olympus_makernotes_t, %struct.libraw_sony_info_t, %struct.libraw_kodak_makernotes_t, %struct.libraw_panasonic_makernotes_t, %struct.libraw_pentax_makernotes_t, %struct.libraw_p1_makernotes_t, %struct.libraw_ricoh_makernotes_t, %struct.libraw_samsung_makernotes_t, %struct.libraw_metadata_common_t }
%struct.libraw_canon_makernotes_t = type { i32, i32, i32, i32, [4 x i32], i32, [4 x i32], i16, i16, i8, i16, i16, i16, i16, i16, i16, i16, i16, i16, i16, i16, i16, i16, i32, float, i16, i16, i16, i32, i16, i32, i32, i16, i32, %struct.libraw_area_t, %struct.libraw_area_t, %struct.libraw_area_t, %struct.libraw_area_t, %struct.libraw_area_t, [2 x i16] }
%struct.libraw_area_t = type { i16, i16, i16, i16 }
%struct.libraw_nikon_makernotes_t = type { double, i16, i16, [7 x i8], i8, i8, [13 x i8], [20 x i8], [4 x i8], [4 x i8], [4 x i8], i8, i8, i8, i8, i8, [2 x i8], i8, i8, i8, i8, i8, [4 x i8], [4 x i8], i8, i16, i32, i32, i32, i32, [4 x double], i8, i8, i8, i32, i32, i32, i8, [4 x i16], i16, %struct.libraw_sensor_highspeed_crop_t, i16, i16, i16, i32, [20 x i8], [20 x i8], i32, i16, double, double, double }
%struct.libraw_sensor_highspeed_crop_t = type { i16, i16, i16, i16 }
%struct.libraw_hasselblad_makernotes_t = type { i32, double, [8 x i8], [64 x i8], [64 x i8], i32, i32, i32, i32, [32 x i8], [64 x i8], i32, [2 x i32], [2 x i32], [4 x [3 x double]] }
%struct.libraw_fuji_info_t = type { float, i16, i16, i16, i16, i16, i16, i16, i16, [33 x i8], [33 x i8], float, i16, i16, [2 x i16], i16, i32, i32, i16, [3 x i16], i16, i16, i16, i16, i16, i32, i16, [13 x i8], [5 x i8], [5 x i8], i32, i16, i32, i16, [9 x i16], [32 x i32], i32, i32, i32, [2 x float], i32 }
%struct.libraw_olympus_makernotes_t = type { [6 x i8], i16, [2 x i32], [5 x i16], i16, [2 x i16], i16, i16, [64 x i32], [5 x double], i16, i8, [3 x i16], [3 x i32], i16, i16, i16, i16, double, [4 x i16], [2 x i32], i8, i32, i16, i16 }
%struct.libraw_sony_info_t = type { i16, i8, i8, i32, i8, i32, i8, i8, i16, [2 x i16], i8, i8, i16, [10 x i8], i8, i8, [4 x i16], i16, i8, i8, i8, i16, i32, i16, [2 x i16], i16, i16, i16, i16, i16, i16, i16, i32, float, i16, i32, i32, i16, [20 x i8], i32, i16, i32, i8, i8, i16, i16, i16, i16, i16, i16, i16, i16, i16, i32, i16, [16 x i8], float }
%struct.libraw_kodak_makernotes_t = type { i16, i16, i16, i16, i16, i16, [3 x [3 x float]], [3 x [3 x float]], [3 x [3 x float]], [3 x [3 x float]], [3 x [3 x float]], [3 x [3 x float]], i16, i16, i16, i16, float, float }
%struct.libraw_panasonic_makernotes_t = type { i16, i16, [8 x float], i32, float, [3 x i32], i16, i16, i32, i32 }
%struct.libraw_pentax_makernotes_t = type { [4 x i8], [2 x i16], [2 x i16], i16, i32, i32, i16, i16, i8, i8, i16 }
%struct.libraw_p1_makernotes_t = type { [64 x i8], [64 x i8], [256 x i8], [64 x i8] }
%struct.libraw_ricoh_makernotes_t = type { i16, [2 x i32], [2 x i32], i16, i32, i32, i32, i32, i16, i16, i16, i16, i16, i16, double, double }
%struct.libraw_samsung_makernotes_t = type { [4 x i32], [4 x i32], [2 x i32], [11 x i32], double, i32, [32 x i8] }
%struct.libraw_metadata_common_t = type { float, float, float, float, float, float, float, float, float, float, float, float, float, float, float, float, i16, [128 x i8], float, [4 x %struct.libraw_afinfo_item_t], i32 }
%struct.libraw_afinfo_item_t = type { i32, i16, i32, i32, ptr }
%struct.libraw_shootinginfo_t = type { i16, i16, i16, i16, i16, i16, i16, [64 x i8], [64 x i8] }
%struct.libraw_output_params_t = type { [4 x i32], [4 x i32], [4 x double], [6 x double], [4 x float], float, float, i32, i32, i32, i32, i32, i32, i32, ptr, ptr, ptr, ptr, i32, i32, i32, i32, i32, i32, [4 x i32], i32, i32, float, float, i32, i32, i32, i32, i32, i32, i32, i32, float, float, i32, i32 }
%struct.libraw_raw_unpack_params_t = type { i32, i32, i32, i32, i32, i32, i32, float, [5 x i8], ptr }
%struct.libraw_colordata_t = type { [65536 x i16], [4104 x i32], i32, i32, i32, [4 x i64], float, float, [8 x [8 x i16]], [4 x float], [4 x float], [3 x [4 x float]], [3 x [4 x float]], [3 x [4 x float]], [4 x [3 x float]], %struct.ph1_t, float, float, [64 x i8], [64 x i8], [64 x i8], [64 x i8], [17 x i8], [64 x i8], ptr, i32, [8 x i32], [2 x %struct.libraw_dng_color_t], %struct.libraw_dng_levels_t, [256 x [4 x i32]], [64 x [5 x float]], i32, [2 x %struct.libraw_P1_color_t], i32, i32 }
%struct.ph1_t = type { i32, i32, i32, i32, i32, i32, i32, i32, float }
%struct.libraw_dng_color_t = type { i32, i16, [4 x [4 x float]], [4 x [3 x float]], [3 x [4 x float]] }
%struct.libraw_dng_levels_t = type { i32, [4104 x i32], i32, [4104 x float], float, [4 x i32], [4 x i16], [4 x float], i32, [4 x float], [4 x float], float, float }
%struct.libraw_P1_color_t = type { [9 x float] }
%struct.libraw_imgother_t = type { float, float, float, float, i64, i32, [32 x i32], %struct.libraw_gps_info_t, [512 x i8], [64 x i8], [4 x float] }
%struct.libraw_gps_info_t = type { [3 x float], [3 x float], [3 x float], float, i8, i8, i8, i8, i8 }
%struct.libraw_thumbnail_t = type { i32, i16, i16, i32, i32, ptr }
%struct.libraw_thumbnail_list_t = type { i32, [8 x %struct.libraw_thumbnail_item_t] }
%struct.libraw_thumbnail_item_t = type { i32, i16, i16, i16, i32, i32, i64 }
%struct.libraw_rawdata_t = type { ptr, ptr, ptr, ptr, ptr, ptr, ptr, ptr, ptr, %struct.libraw_iparams_t, %struct.libraw_image_sizes_t, %struct.libraw_internal_output_params_t, %struct.libraw_colordata_t }
%struct.libraw_internal_output_params_t = type { i32, i32, i32, i16, i16 }
%struct.libraw_internal_data_t = type { %struct.internal_data_t, %struct.libraw_internal_output_params_t, %struct.output_data_t, %struct.identify_data_t, %struct.unpacker_data_t }
%struct.internal_data_t = type { ptr, ptr, i32, ptr, i64, i64, [4 x i32] }
%struct.output_data_t = type { ptr, ptr }
%struct.identify_data_t = type { i32, i64, i64, i32, i32, i32 }
%struct.unpacker_data_t = type { i16, [4 x i16], [3 x i16], i32, i64, i64, i64, i64, i64, i64, i32, i32, i32, i32, i32, i32, i32, i32, i32, i32, i32, i32, i32, i32, i32, i32, i32, i64, i32, i32, i32, i32, i32, i32, i32, i32, i32, %struct.pana8_tags_t, [16 x %struct.crx_data_header_t], i32, i32, i16, i16, i32, i32, i32, i32, i32, i32, i32, [20 x i32], i16 }
%struct.pana8_tags_t = type { [6 x i32], [6 x i16], i16, [4 x i16], [17 x i16], [17 x i16], [17 x i16], i16, i16, [5 x i64], [5 x i16], [5 x i32], [5 x i16], [5 x i16] }
%struct.crx_data_header_t = type { i32, i32, i32, i32, i32, i32, i32, i32, i32, i32, i32, i32, i32, i32, i32, i64, i32, ptr, i32, i32, i32, ptr, i32, ptr }
%struct.decode = type { [2 x ptr], i32 }
%struct.tiff_ifd_t = type { i32, i32, i32, i32, i32, i32, i32, i32, i32, i32, i32, i32, i32, i32, i32, ptr, i32, ptr, i32, i32, i32, i32, i32, i32, i32, float, i64, i64, i32, [2 x %struct.libraw_dng_color_t], %struct.libraw_dng_levels_t, i32 }
%class.libraw_memmgr = type <{ ptr, i32, [4 x i8] }>
%struct.libraw_callbacks_t = type { ptr, ptr, ptr, ptr, ptr, ptr, ptr, ptr, ptr, ptr, ptr, ptr, ptr, ptr, ptr, ptr, ptr }

; Function Attrs: mustprogress nounwind uwtable
define void @_ZN6LibRaw15canon_600_coeffEv(ptr noundef nonnull align 8 dereferenceable(767680) %0) #0 align 2 {
  %2 = alloca ptr, align 8
  %3 = alloca i32, align 4
  %4 = alloca i32, align 4
  %5 = alloca i32, align 4
  %6 = alloca float, align 4
  %7 = alloca float, align 4
  store ptr %0, ptr %2, align 8, !tbaa !6
  %8 = load ptr, ptr %2, align 8
  call void @llvm.lifetime.start.p0(i64 4, ptr %3) #6
  store i32 0, ptr %3, align 4, !tbaa !11
  call void @llvm.lifetime.start.p0(i64 4, ptr %4) #6
  call void @llvm.lifetime.start.p0(i64 4, ptr %5) #6
  call void @llvm.lifetime.start.p0(i64 4, ptr %6) #6
  call void @llvm.lifetime.start.p0(i64 4, ptr %7) #6
  %9 = getelementptr inbounds nuw %class.LibRaw, ptr %8, i32 0, i32 1
  %10 = getelementptr inbounds nuw %struct.libraw_data_t, ptr %9, i32 0, i32 10
  %11 = getelementptr inbounds nuw %struct.libraw_colordata_t, ptr %10, i32 0, i32 10
  %12 = getelementptr inbounds [4 x float], ptr %11, i64 0, i64 1
  %13 = load float, ptr %12, align 4, !tbaa !13
  %14 = getelementptr inbounds nuw %class.LibRaw, ptr %8, i32 0, i32 1
  %15 = getelementptr inbounds nuw %struct.libraw_data_t, ptr %14, i32 0, i32 10
  %16 = getelementptr inbounds nuw %struct.libraw_colordata_t, ptr %15, i32 0, i32 10
  %17 = getelementptr inbounds [4 x float], ptr %16, i64 0, i64 2
  %18 = load float, ptr %17, align 8, !tbaa !13
  %19 = fdiv reassoc nsz arcp contract afn float %13, %18
  store float %19, ptr %6, align 4, !tbaa !13
  %20 = getelementptr inbounds nuw %class.LibRaw, ptr %8, i32 0, i32 1
  %21 = getelementptr inbounds nuw %struct.libraw_data_t, ptr %20, i32 0, i32 10
  %22 = getelementptr inbounds nuw %struct.libraw_colordata_t, ptr %21, i32 0, i32 10
  %23 = getelementptr inbounds [4 x float], ptr %22, i64 0, i64 3
  %24 = load float, ptr %23, align 4, !tbaa !13
  %25 = getelementptr inbounds nuw %class.LibRaw, ptr %8, i32 0, i32 1
  %26 = getelementptr inbounds nuw %struct.libraw_data_t, ptr %25, i32 0, i32 10
  %27 = getelementptr inbounds nuw %struct.libraw_colordata_t, ptr %26, i32 0, i32 10
  %28 = getelementptr inbounds [4 x float], ptr %27, i64 0, i64 2
  %29 = load float, ptr %28, align 8, !tbaa !13
  %30 = fdiv reassoc nsz arcp contract afn float %24, %29
  store float %30, ptr %7, align 4, !tbaa !13
  %31 = load float, ptr %6, align 4, !tbaa !13
  %32 = fcmp reassoc nsz arcp contract afn ogt float %31, 1.000000e+00
  br i1 %32, label %33, label %42

33:                                               ; preds = %1
  %34 = load float, ptr %6, align 4, !tbaa !13
  %35 = fpext reassoc nsz arcp contract afn float %34 to double
  %36 = fcmp reassoc nsz arcp contract afn ole double %35, 1.280000e+00
  br i1 %36, label %37, label %42

37:                                               ; preds = %33
  %38 = load float, ptr %7, align 4, !tbaa !13
  %39 = fpext reassoc nsz arcp contract afn float %38 to double
  %40 = fcmp reassoc nsz arcp contract afn olt double %39, 8.789000e-01
  br i1 %40, label %41, label %42

41:                                               ; preds = %37
  store i32 1, ptr %3, align 4, !tbaa !11
  br label %42

42:                                               ; preds = %41, %37, %33, %1
  %43 = load float, ptr %6, align 4, !tbaa !13
  %44 = fpext reassoc nsz arcp contract afn float %43 to double
  %45 = fcmp reassoc nsz arcp contract afn ogt double %44, 1.280000e+00
  br i1 %45, label %46, label %60

46:                                               ; preds = %42
  %47 = load float, ptr %6, align 4, !tbaa !13
  %48 = fcmp reassoc nsz arcp contract afn ole float %47, 2.000000e+00
  br i1 %48, label %49, label %60

49:                                               ; preds = %46
  %50 = load float, ptr %7, align 4, !tbaa !13
  %51 = fpext reassoc nsz arcp contract afn float %50 to double
  %52 = fcmp reassoc nsz arcp contract afn olt double %51, 8.789000e-01
  br i1 %52, label %53, label %54

53:                                               ; preds = %49
  store i32 3, ptr %3, align 4, !tbaa !11
  br label %59

54:                                               ; preds = %49
  %55 = load float, ptr %7, align 4, !tbaa !13
  %56 = fcmp reassoc nsz arcp contract afn ole float %55, 2.000000e+00
  br i1 %56, label %57, label %58

57:                                               ; preds = %54
  store i32 4, ptr %3, align 4, !tbaa !11
  br label %58

58:                                               ; preds = %57, %54
  br label %59

59:                                               ; preds = %58, %53
  br label %60

60:                                               ; preds = %59, %46, %42
  %61 = getelementptr inbounds nuw %class.LibRaw, ptr %8, i32 0, i32 1
  %62 = getelementptr inbounds nuw %struct.libraw_data_t, ptr %61, i32 0, i32 10
  %63 = getelementptr inbounds nuw %struct.libraw_colordata_t, ptr %62, i32 0, i32 16
  %64 = load float, ptr %63, align 4, !tbaa !23
  %65 = fcmp reassoc nsz arcp contract afn une float %64, 0.000000e+00
  br i1 %65, label %66, label %67

66:                                               ; preds = %60
  store i32 5, ptr %3, align 4, !tbaa !11
  br label %67

67:                                               ; preds = %66, %60
  store i32 0, ptr %4, align 4, !tbaa !11
  %68 = getelementptr inbounds nuw %class.LibRaw, ptr %8, i32 0, i32 3
  %69 = getelementptr inbounds nuw %struct.libraw_internal_data_t, ptr %68, i32 0, i32 1
  %70 = getelementptr inbounds nuw %struct.libraw_internal_output_params_t, ptr %69, i32 0, i32 1
  store i32 0, ptr %70, align 4, !tbaa !99
  br label %71

71:                                               ; preds = %113, %67
  %72 = load i32, ptr %4, align 4, !tbaa !11
  %73 = icmp slt i32 %72, 3
  br i1 %73, label %74, label %116

74:                                               ; preds = %71
  store i32 0, ptr %5, align 4, !tbaa !11
  br label %75

75:                                               ; preds = %109, %74
  %76 = load i32, ptr %5, align 4, !tbaa !11
  %77 = getelementptr inbounds nuw %class.LibRaw, ptr %8, i32 0, i32 1
  %78 = getelementptr inbounds nuw %struct.libraw_data_t, ptr %77, i32 0, i32 2
  %79 = getelementptr inbounds nuw %struct.libraw_iparams_t, ptr %78, i32 0, i32 10
  %80 = load i32, ptr %79, align 4, !tbaa !100
  %81 = icmp slt i32 %76, %80
  br i1 %81, label %82, label %85

82:                                               ; preds = %75
  %83 = load i32, ptr %5, align 4, !tbaa !11
  %84 = icmp slt i32 %83, 4
  br label %85

85:                                               ; preds = %82, %75
  %86 = phi i1 [ false, %75 ], [ %84, %82 ]
  br i1 %86, label %87, label %112

87:                                               ; preds = %85
  %88 = load i32, ptr %3, align 4, !tbaa !11
  %89 = sext i32 %88 to i64
  %90 = getelementptr inbounds [6 x [12 x i16]], ptr @_ZZN6LibRaw15canon_600_coeffEvE5table, i64 0, i64 %89
  %91 = load i32, ptr %4, align 4, !tbaa !11
  %92 = mul nsw i32 %91, 4
  %93 = load i32, ptr %5, align 4, !tbaa !11
  %94 = add nsw i32 %92, %93
  %95 = sext i32 %94 to i64
  %96 = getelementptr inbounds [12 x i16], ptr %90, i64 0, i64 %95
  %97 = load i16, ptr %96, align 2, !tbaa !15
  %98 = sitofp i16 %97 to float
  %99 = fdiv reassoc nsz arcp contract afn float %98, 1.024000e+03
  %100 = getelementptr inbounds nuw %class.LibRaw, ptr %8, i32 0, i32 1
  %101 = getelementptr inbounds nuw %struct.libraw_data_t, ptr %100, i32 0, i32 10
  %102 = getelementptr inbounds nuw %struct.libraw_colordata_t, ptr %101, i32 0, i32 13
  %103 = load i32, ptr %4, align 4, !tbaa !11
  %104 = sext i32 %103 to i64
  %105 = getelementptr inbounds [3 x [4 x float]], ptr %102, i64 0, i64 %104
  %106 = load i32, ptr %5, align 4, !tbaa !11
  %107 = sext i32 %106 to i64
  %108 = getelementptr inbounds [4 x float], ptr %105, i64 0, i64 %107
  store float %99, ptr %108, align 4, !tbaa !13
  br label %109

109:                                              ; preds = %87
  %110 = load i32, ptr %5, align 4, !tbaa !11
  %111 = add nsw i32 %110, 1
  store i32 %111, ptr %5, align 4, !tbaa !11
  br label %75, !llvm.loop !101

112:                                              ; preds = %85
  br label %113

113:                                              ; preds = %112
  %114 = load i32, ptr %4, align 4, !tbaa !11
  %115 = add nsw i32 %114, 1
  store i32 %115, ptr %4, align 4, !tbaa !11
  br label %71, !llvm.loop !102

116:                                              ; preds = %71
  call void @llvm.lifetime.end.p0(i64 4, ptr %7) #6
  call void @llvm.lifetime.end.p0(i64 4, ptr %6) #6
  call void @llvm.lifetime.end.p0(i64 4, ptr %5) #6
  call void @llvm.lifetime.end.p0(i64 4, ptr %4) #6
  call void @llvm.lifetime.end.p0(i64 4, ptr %3) #6
  ret void
}