; Function Attrs: mustprogress nofree norecurse nosync nounwind memory(argmem: readwrite) uwtable
define void @_ZN6LibRaw15canon_600_coeffEv(ptr noundef nonnull align 8 captures(none) dereferenceable(767680) initializes((381484, 381488)) %0) local_unnamed_addr #6 align 2 {
  %2 = getelementptr inbounds nuw i8, ptr %0, i64 153196
  %3 = load float, ptr %2, align 4, !tbaa !13
  %4 = getelementptr inbounds nuw i8, ptr %0, i64 153200
  %5 = load float, ptr %4, align 8, !tbaa !13
  %6 = fdiv reassoc nsz arcp contract afn float %3, %5
  %7 = getelementptr inbounds nuw i8, ptr %0, i64 153204
  %8 = load float, ptr %7, align 4, !tbaa !13
  %9 = fdiv reassoc nsz arcp contract afn float %8, %5
  %10 = fcmp reassoc nsz arcp contract afn ogt float %6, 1.000000e+00
  %11 = fpext reassoc nsz arcp contract afn float %6 to double
  %12 = fcmp reassoc nsz arcp contract afn ole double %11, 1.280000e+00
  %or.cond22.not26 = and i1 %10, %12
  %13 = fpext reassoc nsz arcp contract afn float %9 to double
  %14 = fcmp reassoc nsz arcp contract afn olt double %13, 8.789000e-01
  %or.cond24 = select i1 %or.cond22.not26, i1 %14, i1 false
  %.0 = zext i1 %or.cond24 to i32
  %15 = fcmp reassoc nsz arcp contract afn ule double %11, 1.280000e+00
  %16 = fcmp reassoc nsz arcp contract afn ugt float %6, 2.000000e+00
  %or.cond.not28 = or i1 %16, %15
  %brmerge = select i1 %or.cond.not28, i1 true, i1 %14
  %.0.mux = select i1 %or.cond.not28, i32 %.0, i32 3
  br i1 %brmerge, label %20, label %17

17:                                               ; preds = %1
  %18 = fcmp reassoc nsz arcp contract afn ugt float %9, 2.000000e+00
  br i1 %18, label %20, label %19

19:                                               ; preds = %17
  br label %20

20:                                               ; preds = %1, %19, %17
  %.1 = phi i32 [ 4, %19 ], [ %.0, %17 ], [ %.0.mux, %1 ]
  %21 = getelementptr inbounds nuw i8, ptr %0, i64 153436
  %22 = load float, ptr %21, align 4, !tbaa !16
  %23 = fcmp reassoc nsz arcp contract afn une float %22, 0.000000e+00
  %24 = getelementptr inbounds nuw i8, ptr %0, i64 381484
  store i32 0, ptr %24, align 4, !tbaa !92
  %25 = getelementptr inbounds nuw i8, ptr %0, i64 540
  %26 = load i32, ptr %25, align 4, !tbaa !93
  %27 = icmp sgt i32 %26, 0
  %28 = zext nneg i32 %.1 to i64
  %29 = select i1 %23, i64 5, i64 %28
  %30 = getelementptr inbounds nuw i8, ptr %0, i64 153304
  br i1 %27, label %.preheader.us.preheader, label %.split32.us

.preheader.us.preheader:                          ; preds = %20
  %invariant.smin = tail call i32 @llvm.smin.i32(i32 %26, i32 4)
  %wide.trip.count = zext nneg i32 %invariant.smin to i64
  br label %.preheader.us

.preheader.us:                                    ; preds = %.preheader.us.preheader, %._crit_edge.us
  %indvars.iv35 = phi i64 [ 0, %.preheader.us.preheader ], [ %indvars.iv.next36, %._crit_edge.us ]
  %31 = shl nuw nsw i64 %indvars.iv35, 2
  br label %32

32:                                               ; preds = %.preheader.us, %32
  %indvars.iv = phi i64 [ 0, %.preheader.us ], [ %indvars.iv.next, %32 ]
  %33 = add nuw nsw i64 %indvars.iv, %31
  %34 = getelementptr inbounds nuw [6 x [12 x i16]], ptr @_ZZN6LibRaw15canon_600_coeffEvE5table, i64 0, i64 %29, i64 %33
  %35 = load i16, ptr %34, align 2, !tbaa !6
  %36 = sitofp i16 %35 to float
  %37 = fmul reassoc nsz arcp contract afn float %36, 0x3F50000000000000
  %38 = getelementptr inbounds nuw [3 x [4 x float]], ptr %30, i64 0, i64 %indvars.iv35, i64 %indvars.iv
  store float %37, ptr %38, align 4, !tbaa !13
  %indvars.iv.next = add nuw nsw i64 %indvars.iv, 1
  %exitcond.not = icmp eq i64 %indvars.iv.next, %wide.trip.count
  br i1 %exitcond.not, label %._crit_edge.us, label %32, !llvm.loop !94

._crit_edge.us:                                   ; preds = %32
  %indvars.iv.next36 = add nuw nsw i64 %indvars.iv35, 1
  %exitcond38.not = icmp eq i64 %indvars.iv.next36, 3
  br i1 %exitcond38.not, label %.split32.us, label %.preheader.us, !llvm.loop !95

.split32.us:                                      ; preds = %._crit_edge.us, %20
  ret void
}